(dp0
S'METTS MARK'
p1
(dp2
S'to_messages'
p3
F807.0
sS'deferral_payments'
p4
F0.0
sS'expenses'
p5
F307.08142242734255
sS'poi'
p6
F0.0
sS'sent_ratio'
p7
F0.0012391573729863693
sS'long_term_incentive'
p8
F0.0
sS'from_poi_to_this_person'
p9
F38.0
sS'deferred_income'
p10
F0.0
sS'restricted_stock_deferred'
p11
F0.0
sS'shared_receipt_with_poi'
p12
F702.0
sS'loan_advances'
p13
F0.0
sS'from_messages'
p14
F29.0
sS'other'
p15
F7.462214939768189
sS'director_fees'
p16
F0.0
sS'bonus'
p17
F774.5966692414834
sS'total_stock_value'
p18
F585062.0
sS'rcv_ratio'
p19
F1.3103448275862069
sS'from_this_person_to_poi'
p20
F1.0
sS'restricted_stock'
p21
F585062.0
sS'salary'
p22
F12.809811943409667
sS'total_payments'
p23
F1061827.0
sS'exercised_stock_options'
p24
F0.0
sS'holding_rate'
p25
F45672.95777523104
ssS'BAXTER JOHN C'
p26
(dp27
g3
F0.0
sg4
F1295738.0
sg5
F105.83005244258362
sg6
F0.0
sg7
F0.0
sg8
F1586055.0
sg9
F0.0
sg10
F-1386055.0
sg11
F0.0
sg12
F0.0
sg13
F0.0
sg14
F0.0
sg15
F14.793950959942054
sg16
F0.0
sg17
F1095.4451150103323
sg18
F10623258.0
sg19
F0.0
sg20
F0.0
sg21
F3942714.0
sg22
F12.495389630783386
sg23
F5634343.0
sg24
F6680544.0
sg25
F850174.2093602875
ssS'ELLIOTT STEVEN'
p28
(dp29
g3
F0.0
sg4
F0.0
sg5
F280.2712971390399
sg6
F0.0
sg7
F0.0
sg8
F0.0
sg9
F0.0
sg10
F-400729.0
sg11
F0.0
sg12
F0.0
sg13
F0.0
sg14
F0.0
sg15
F9.469777278987662
sg16
F0.0
sg17
F591.6079783099616
sg18
F6678735.0
sg19
F0.0
sg20
F0.0
sg21
F1788391.0
sg22
F12.049079596663264
sg23
F211725.0
sg24
F4890344.0
sg25
F554294.2053307984
ssS'CORDES WILLIAM R'
p30
(dp31
g3
F764.0
sg4
F0.0
sg5
F0.0
sg6
F0.0
sg7
F0.0
sg8
F0.0
sg9
F10.0
sg10
F0.0
sg11
F0.0
sg12
F58.0
sg13
F0.0
sg14
F12.0
sg15
F0.0
sg16
F0.0
sg17
F0.0
sg18
F1038185.0
sg19
F0.8333333333333334
sg20
F0.0
sg21
F386335.0
sg22
F12.52523244208634
sg23
F0.0
sg24
F651850.0
sg25
F82887.48370940959
ssS'HANNON KEVIN P'
p32
(dp33
g3
F1045.0
sg4
F0.0
sg5
F184.4966124350255
sg6
F1.0
sg7
F0.020095693779904306
sg8
F1617011.0
sg9
F32.0
sg10
F-3117011.0
sg11
F0.0
sg12
F1035.0
sg13
F0.0
sg14
F32.0
sg15
F9.337061124755339
sg16
F0.0
sg17
F1224.744871391589
sg18
F6391065.0
sg19
F1.0
sg20
F21.0
sg21
F853064.0
sg22
F12.402025867555075
sg23
F288682.0
sg24
F5538001.0
sg25
F515324.2759087979
ssS'MORDAUNT KRISTINA M'
p34
(dp35
g3
F0.0
sg4
F0.0
sg5
F187.13097017864254
sg6
F0.0
sg7
F0.0
sg8
F0.0
sg9
F0.0
sg10
F0.0
sg11
F0.0
sg12
F0.0
sg13
F0.0
sg14
F0.0
sg15
F7.252762418053187
sg16
F0.0
sg17
F570.087712549569
sg18
F208510.0
sg19
F0.0
sg20
F0.0
sg21
F208510.0
sg22
F12.495355935348927
sg23
F628522.0
sg24
F0.0
sg25
F16686.999640413
ssS'MEYER ROCKFORD G'
p36
(dp37
g3
F232.0
sg4
F1848227.0
sg5
F0.0
sg6
F0.0
sg7
F0.0
sg8
F0.0
sg9
F0.0
sg10
F0.0
sg11
F0.0
sg12
F22.0
sg13
F0.0
sg14
F28.0
sg15
F0.0
sg16
F0.0
sg17
F0.0
sg18
F955873.0
sg19
F0.0
sg20
F0.0
sg21
F462384.0
sg22
F12.52523244208634
sg23
F1848227.0
sg24
F493489.0
sg25
F76315.78930129454
ssS'MCMAHON JEFFREY'
p38
(dp39
g3
F2355.0
sg4
F0.0
sg5
F370.280974396471
sg6
F0.0
sg7
F0.011040339702760084
sg8
F694862.0
sg9
F58.0
sg10
F0.0
sg11
F0.0
sg12
F2228.0
sg13
F0.0
sg14
F48.0
sg15
F12.602678627205014
sg16
F0.0
sg17
F1612.4515496597098
sg18
F1662855.0
sg19
F1.2083333333333333
sg20
F26.0
sg21
F558801.0
sg22
F12.822471062421535
sg23
F4099771.0
sg24
F1104054.0
sg25
F129682.88186457941
ssS'HORTON STANLEY C'
p40
(dp41
g3
F2350.0
sg4
F3131860.0
sg5
F0.0
sg6
F0.0
sg7
F0.006382978723404255
sg8
F0.0
sg9
F44.0
sg10
F0.0
sg11
F0.0
sg12
F1074.0
sg13
F0.0
sg14
F1073.0
sg15
F0.0
sg16
F0.0
sg17
F0.0
sg18
F7256648.0
sg19
F0.04100652376514446
sg20
F15.0
sg21
F2046079.0
sg22
F12.52523244208634
sg23
F3131860.0
sg24
F5210569.0
sg25
F579362.341860959
ssS'PIPER GREGORY F'
p42
(dp43
g3
F1238.0
sg4
F1130036.0
sg5
F207.50180722104568
sg6
F0.0
sg7
F0.03877221324717286
sg8
F0.0
sg9
F61.0
sg10
F-33333.0
sg11
F-409554.0
sg12
F742.0
sg13
F0.0
sg14
F222.0
sg15
F6.658011045870748
sg16
F0.0
sg17
F632.4555320336759
sg18
F880290.0
sg19
F0.2747747747747748
sg20
F48.0
sg21
F409554.0
sg22
F12.191425903783335
sg23
F1737629.0
sg24
F880290.0
sg25
F72205.6637958011
ssS'HUMPHREY GENE E'
p44
(dp45
g3
F128.0
sg4
F2964506.0
sg5
F70.66823897621902
sg6
F0.0
sg7
F0.1328125
sg8
F0.0
sg9
F10.0
sg10
F0.0
sg11
F0.0
sg12
F119.0
sg13
F0.0
sg14
F17.0
sg15
F0.0
sg16
F0.0
sg17
F0.0
sg18
F2282768.0
sg19
F0.5882352941176471
sg20
F17.0
sg21
F0.0
sg22
F11.780851159056331
sg23
F3100224.0
sg24
F2282768.0
sg25
F193769.36090438257
ssS'UMANOFF ADAM S'
p46
(dp47
g3
F111.0
sg4
F0.0
sg5
F230.4821034267086
sg6
F0.0
sg7
F0.0
sg8
F0.0
sg9
F12.0
sg10
F0.0
sg11
F0.0
sg12
F41.0
sg13
F0.0
sg14
F18.0
sg15
F0.0
sg16
F0.0
sg17
F888.1159834165805
sg18
F0.0
sg19
F0.6666666666666666
sg20
F0.0
sg21
F0.0
sg22
F12.572762274686932
sg23
F1130461.0
sg24
F0.0
sg25
F0.0
ssS'BLACHMAN JEREMY M'
p48
(dp49
g3
F2475.0
sg4
F0.0
sg5
F290.18614715385706
sg6
F0.0
sg7
F0.0008080808080808081
sg8
F831809.0
sg9
F25.0
sg10
F0.0
sg11
F0.0
sg12
F2326.0
sg13
F0.0
sg14
F14.0
sg15
F5.60947179518496
sg16
F0.0
sg17
F921.9544457292888
sg18
F954354.0
sg19
F1.7857142857142858
sg20
F2.0
sg21
F189041.0
sg22
F12.42338724144394
sg23
F2014835.0
sg24
F765313.0
sg25
F76819.14613562974
ssS'SUNDE MARTIN'
p50
(dp51
g3
F2647.0
sg4
F0.0
sg5
F0.0
sg6
F0.0
sg7
F0.004911220249338874
sg8
F476451.0
sg9
F37.0
sg10
F0.0
sg11
F0.0
sg12
F2565.0
sg13
F0.0
sg14
F38.0
sg15
F11.618392974903964
sg16
F0.0
sg17
F836.6600265340755
sg18
F698920.0
sg19
F0.9736842105263158
sg20
F13.0
sg21
F698920.0
sg22
F12.458724512374602
sg23
F1545059.0
sg24
F0.0
sg25
F56098.840559946504
ssS'GIBBS DANA R'
p52
(dp53
g3
F169.0
sg4
F504610.0
sg5
F0.0
sg6
F0.0
sg7
F0.0
sg8
F461912.0
sg9
F0.0
sg10
F0.0
sg11
F0.0
sg12
F23.0
sg13
F0.0
sg14
F12.0
sg15
F0.0
sg16
F0.0
sg17
F0.0
sg18
F2218275.0
sg19
F0.0
sg20
F0.0
sg21
F0.0
sg22
F12.52523244208634
sg23
F966522.0
sg24
F2218275.0
sg25
F177104.49768152167
ssS'LOWRY CHARLES P'
p54
(dp55
g3
F0.0
sg4
F0.0
sg5
F0.0
sg6
F0.0
sg7
F0.0
sg8
F0.0
sg9
F0.0
sg10
F0.0
sg11
F-153686.0
sg12
F0.0
sg13
F0.0
sg14
F0.0
sg15
F0.0
sg16
F0.0
sg17
F0.0
sg18
F372205.0
sg19
F0.0
sg20
F0.0
sg21
F153686.0
sg22
F12.52523244208634
sg23
F0.0
sg24
F372205.0
sg25
F29716.41458320126
ssS'COLWELL WESLEY'
p56
(dp57
g3
F1758.0
sg4
F27610.0
sg5
F128.50680915811427
sg6
F1.0
sg7
F0.006257110352673493
sg8
F0.0
sg9
F240.0
sg10
F-144062.0
sg11
F0.0
sg12
F1132.0
sg13
F0.0
sg14
F40.0
sg15
F11.530185647304272
sg16
F0.0
sg17
F1095.4451150103323
sg18
F698242.0
sg19
F6.0
sg20
F11.0
sg21
F698242.0
sg22
F12.572599400617682
sg23
F1490344.0
sg24
F0.0
sg25
F55536.80490016217
ssS'MULLER MARK S'
p58
(dp59
g3
F136.0
sg4
F842924.0
sg5
F0.0
sg6
F0.0
sg7
F0.0
sg8
F1725545.0
sg9
F12.0
sg10
F-719000.0
sg11
F0.0
sg12
F114.0
sg13
F0.0
sg14
F16.0
sg15
F6.854354502255021
sg16
F0.0
sg17
F1048.8088481701516
sg18
F1416848.0
sg19
F0.75
sg20
F0.0
sg21
F360528.0
sg22
F12.43581438087261
sg23
F3202070.0
sg24
F1056320.0
sg25
F113932.86813441332
ssS'JACKSON CHARLENE R'
p60
(dp61
g3
F258.0
sg4
F0.0
sg5
F100.90094152187085
sg6
F0.0
sg7
F0.07364341085271318
sg8
F0.0
sg9
F25.0
sg10
F0.0
sg11
F0.0
sg12
F117.0
sg13
F0.0
sg14
F56.0
sg15
F7.798112628829788
sg16
F0.0
sg17
F500.0
sg18
F725735.0
sg19
F0.44642857142857145
sg20
F19.0
sg21
F540672.0
sg22
F12.572654850087634
sg23
F551174.0
sg24
F185063.0
sg25
F57723.28984239486
ssS'WESTFAHL RICHARD K'
p62
(dp63
g3
F0.0
sg4
F0.0
sg5
F227.74986278810357
sg6
F0.0
sg7
F0.0
sg8
F256191.0
sg9
F0.0
sg10
F-10800.0
sg11
F0.0
sg12
F0.0
sg13
F0.0
sg14
F0.0
sg15
F12.90204333623111
sg16
F0.0
sg17
F0.0
sg18
F384930.0
sg19
F0.0
sg20
F0.0
sg21
F384930.0
sg22
F11.062646028572223
sg23
F762135.0
sg24
F0.0
sg25
F34795.472891911755
ssS'WALTERS GARETH W'
p64
(dp65
g3
F0.0
sg4
F53625.0
sg5
F183.8069639594757
sg6
F0.0
sg7
F0.0
sg8
F0.0
sg9
F0.0
sg10
F0.0
sg11
F0.0
sg12
F0.0
sg13
F0.0
sg14
F0.0
sg15
F0.0
sg16
F0.0
sg17
F0.0
sg18
F1030329.0
sg19
F0.0
sg20
F0.0
sg21
F0.0
sg22
F12.52523244208634
sg23
F87410.0
sg24
F1030329.0
sg25
F82260.26980050017
ssS'WALLS JR ROBERT H'
p66
(dp67
g3
F671.0
sg4
F0.0
sg5
F225.69005294872878
sg6
F0.0
sg7
F0.0
sg8
F540751.0
sg9
F17.0
sg10
F0.0
sg11
F0.0
sg12
F215.0
sg13
F0.0
sg14
F146.0
sg15
F1.0986122886681096
sg16
F0.0
sg17
F921.9544457292888
sg18
F5898997.0
sg19
F0.11643835616438356
sg20
F0.0
sg21
F1552453.0
sg22
F12.785748730643274
sg23
F1798780.0
sg24
F4346544.0
sg25
F461372.8240929705
ssS'KITCHEN LOUISE'
p68
(dp69
g3
F8305.0
sg4
F0.0
sg5
F75.98684096605149
sg6
F0.0
sg7
F0.023359422034918725
sg8
F0.0
sg9
F251.0
sg10
F0.0
sg11
F0.0
sg12
F3669.0
sg13
F0.0
sg14
F1728.0
sg15
F11.450262517178146
sg16
F0.0
sg17
F1760.6816861659008
sg18
F547143.0
sg19
F0.14525462962962962
sg20
F194.0
sg21
F466101.0
sg22
F12.511507451563261
sg23
F3471141.0
sg24
F81042.0
sg25
F43731.18124400244
ssS'CHAN RONNIE'
p70
(dp71
g3
F0.0
sg4
F0.0
sg5
F0.0
sg6
F0.0
sg7
F0.0
sg8
F0.0
sg9
F0.0
sg10
F-98784.0
sg11
F-32460.0
sg12
F0.0
sg13
F0.0
sg14
F0.0
sg15
F0.0
sg16
F98784.0
sg17
F0.0
sg18
F0.0
sg19
F0.0
sg20
F0.0
sg21
F32460.0
sg22
F12.52523244208634
sg23
F0.0
sg24
F0.0
sg25
F0.0
ssS'BELFER ROBERT'
p72
(dp73
g3
F0.0
sg4
F-102500.0
sg5
F0.0
sg6
F0.0
sg7
F0.0
sg8
F0.0
sg9
F0.0
sg10
F0.0
sg11
F44093.0
sg12
F0.0
sg13
F0.0
sg14
F0.0
sg15
F0.0
sg16
F3285.0
sg17
F0.0
sg18
F-44093.0
sg19
F0.0
sg20
F0.0
sg21
F0.0
sg22
F12.52523244208634
sg23
F102500.0
sg24
F3285.0
sg25
F-3520.3338703593263
ssS'SHANKMAN JEFFREY A'
p74
(dp75
g3
F3221.0
sg4
F0.0
sg5
F423.0590975265749
sg6
F0.0
sg7
F0.025768394908413535
sg8
F554422.0
sg9
F94.0
sg10
F0.0
sg11
F0.0
sg12
F1730.0
sg13
F0.0
sg14
F2681.0
sg15
F7.083387847625295
sg16
F0.0
sg17
F1414.213562373095
sg18
F2072035.0
sg19
F0.0350615441999254
sg20
F83.0
sg21
F630137.0
sg22
F12.625148045322993
sg23
F3038702.0
sg24
F1441898.0
sg25
F164119.65963184004
ssS'WODRASKA JOHN'
p76
(dp77
g3
F0.0
sg4
F0.0
sg5
F0.0
sg6
F0.0
sg7
F0.0
sg8
F0.0
sg9
F0.0
sg10
F0.0
sg11
F0.0
sg12
F0.0
sg13
F0.0
sg14
F0.0
sg15
F12.152587477056521
sg16
F0.0
sg17
F0.0
sg18
F0.0
sg19
F0.0
sg20
F0.0
sg21
F0.0
sg22
F12.52523244208634
sg23
F189583.0
sg24
F0.0
sg25
F0.0
ssS'BERGSIEKER RICHARD P'
p78
(dp79
g3
F383.0
sg4
F0.0
sg5
F243.25912110340283
sg6
F0.0
sg7
F0.0
sg8
F180250.0
sg9
F4.0
sg10
F-485813.0
sg11
F0.0
sg12
F233.0
sg13
F0.0
sg14
F59.0
sg15
F12.96528140553532
sg16
F0.0
sg17
F500.0
sg18
F659249.0
sg19
F0.06779661016949153
sg20
F0.0
sg21
F659249.0
sg22
F12.14378758344547
sg23
F618850.0
sg24
F0.0
sg25
F54286.93440740801
ssS'URQUHART JOHN A'
p80
(dp81
g3
F0.0
sg4
F0.0
sg5
F478.1798824710216
sg6
F0.0
sg7
F0.0
sg8
F0.0
sg9
F0.0
sg10
F-36666.0
sg11
F0.0
sg12
F0.0
sg13
F0.0
sg14
F0.0
sg15
F0.0
sg16
F36666.0
sg17
F0.0
sg18
F0.0
sg19
F0.0
sg20
F0.0
sg21
F0.0
sg22
F12.52523244208634
sg23
F228656.0
sg24
F0.0
sg25
F0.0
ssS'BIBI PHILIPPE A'
p82
(dp83
g3
F1607.0
sg4
F0.0
sg5
F196.36445706899198
sg6
F0.0
sg7
F0.004978220286247666
sg8
F369721.0
sg9
F23.0
sg10
F0.0
sg11
F0.0
sg12
F1336.0
sg13
F0.0
sg14
F40.0
sg15
F12.96146431168911
sg16
F0.0
sg17
F1000.0
sg18
F1843816.0
sg19
F0.575
sg20
F8.0
sg21
F378082.0
sg22
F12.271982101506994
sg23
F2047593.0
sg24
F1465734.0
sg25
F150245.98184294777
ssS'PIRO JIM'
p84
(dp85
g3
F58.0
sg4
F0.0
sg5
F0.0
sg6
F0.0
sg7
F0.017241379310344827
sg8
F0.0
sg9
F0.0
sg10
F0.0
sg11
F0.0
sg12
F3.0
sg13
F0.0
sg14
F16.0
sg15
F0.0
sg16
F0.0
sg17
F0.0
sg18
F47304.0
sg19
F0.0
sg20
F1.0
sg21
F47304.0
sg22
F12.52523244208634
sg23
F0.0
sg24
F0.0
sg25
F3776.696378188773
ssS'RIEKER PAULA H'
p86
(dp87
g3
F1328.0
sg4
F214678.0
sg5
F182.40339909113536
sg6
F1.0
sg7
F0.03614457831325301
sg8
F0.0
sg9
F35.0
sg10
F-100000.0
sg11
F0.0
sg12
F1258.0
sg13
F0.0
sg14
F82.0
sg15
F7.576097340623111
sg16
F0.0
sg17
F836.6600265340755
sg18
F1918887.0
sg19
F0.4268292682926829
sg20
F48.0
sg21
F283649.0
sg22
F12.426019091545413
sg23
F1099100.0
sg24
F1635238.0
sg25
F154424.91966760287
ssS'WHALEY DAVID A'
p88
(dp89
g3
F0.0
sg4
F0.0
sg5
F0.0
sg6
F0.0
sg7
F0.0
sg8
F0.0
sg9
F0.0
sg10
F0.0
sg11
F0.0
sg12
F0.0
sg13
F0.0
sg14
F0.0
sg15
F0.0
sg16
F0.0
sg17
F0.0
sg18
F98718.0
sg19
F0.0
sg20
F0.0
sg21
F0.0
sg22
F12.52523244208634
sg23
F0.0
sg24
F98718.0
sg25
F7881.530379292222
ssS'BECK SALLY W'
p90
(dp91
g3
F7315.0
sg4
F0.0
sg5
F192.80041493731284
sg6
F0.0
sg7
F0.052768284347231714
sg8
F0.0
sg9
F144.0
sg10
F0.0
sg11
F0.0
sg12
F2639.0
sg13
F0.0
sg14
F4343.0
sg15
F6.340359303727752
sg16
F0.0
sg17
F836.6600265340755
sg18
F126027.0
sg19
F0.033156804052498275
sg20
F386.0
sg21
F126027.0
sg22
F12.351604864314632
sg23
F969068.0
sg24
F0.0
sg25
F10203.289482171514
ssS'HAUG DAVID L'
p92
(dp93
g3
F573.0
sg4
F0.0
sg5
F21.79449471770337
sg6
F0.0
sg7
F0.012216404886561954
sg8
F0.0
sg9
F4.0
sg10
F0.0
sg11
F0.0
sg12
F471.0
sg13
F0.0
sg14
F19.0
sg15
F0.0
sg16
F0.0
sg17
F0.0
sg18
F2217299.0
sg19
F0.21052631578947367
sg20
F7.0
sg21
F2217299.0
sg22
F12.52523244208634
sg23
F475.0
sg24
F0.0
sg25
F177026.57497593414
ssS'ECHOLS JOHN B'
p94
(dp95
g3
F0.0
sg4
F0.0
sg5
F146.7310464761974
sg6
F0.0
sg7
F0.0
sg8
F2234774.0
sg9
F0.0
sg10
F0.0
sg11
F0.0
sg12
F0.0
sg13
F0.0
sg14
F0.0
sg15
F10.892582549964887
sg16
F0.0
sg17
F447.21359549995793
sg18
F1008941.0
sg19
F0.0
sg20
F0.0
sg21
F407503.0
sg22
F12.113112701756247
sg23
F2692324.0
sg24
F601438.0
sg25
F83293.28925121918
ssS'MENDELSOHN JOHN'
p96
(dp97
g3
F0.0
sg4
F0.0
sg5
F12.165525060596439
sg6
F0.0
sg7
F0.0
sg8
F0.0
sg9
F0.0
sg10
F-103750.0
sg11
F0.0
sg12
F0.0
sg13
F0.0
sg14
F0.0
sg15
F0.0
sg16
F103750.0
sg17
F0.0
sg18
F0.0
sg19
F0.0
sg20
F0.0
sg21
F0.0
sg22
F12.52523244208634
sg23
F148.0
sg24
F0.0
sg25
F0.0
ssS'HICKERSON GARY J'
p98
(dp99
g3
F1320.0
sg4
F0.0
sg5
F314.40260813167566
sg6
F0.0
sg7
F0.0007575757575757576
sg8
F69223.0
sg9
F40.0
sg10
F0.0
sg11
F0.0
sg12
F900.0
sg13
F0.0
sg14
F27.0
sg15
F7.5688956634069955
sg16
F0.0
sg17
F1303.8404810405298
sg18
F441096.0
sg19
F1.4814814814814814
sg20
F1.0
sg21
F441096.0
sg22
F12.263345775012255
sg23
F2081796.0
sg24
F0.0
sg25
F35968.65065150291
ssS'CLINE KENNETH W'
p100
(dp101
g3
F0.0
sg4
F0.0
sg5
F0.0
sg6
F0.0
sg7
F0.0
sg8
F0.0
sg9
F0.0
sg10
F0.0
sg11
F-472568.0
sg12
F0.0
sg13
F0.0
sg14
F0.0
sg15
F0.0
sg16
F0.0
sg17
F0.0
sg18
F189518.0
sg19
F0.0
sg20
F0.0
sg21
F662086.0
sg22
F12.52523244208634
sg23
F0.0
sg24
F0.0
sg25
F15130.896841738117
ssS'LEWIS RICHARD'
p102
(dp103
g3
F952.0
sg4
F0.0
sg5
F0.0
sg6
F0.0
sg7
F0.0
sg8
F0.0
sg9
F10.0
sg10
F0.0
sg11
F0.0
sg12
F739.0
sg13
F0.0
sg14
F26.0
sg15
F0.0
sg16
F0.0
sg17
F0.0
sg18
F850477.0
sg19
F0.38461538461538464
sg20
F0.0
sg21
F0.0
sg22
F12.52523244208634
sg23
F0.0
sg24
F850477.0
sg25
F67901.09516389424
ssS'HAYES ROBERT E'
p104
(dp105
g3
F504.0
sg4
F7961.0
sg5
F0.0
sg6
F0.0
sg7
F0.0
sg8
F0.0
sg9
F16.0
sg10
F0.0
sg11
F0.0
sg12
F50.0
sg13
F0.0
sg14
F12.0
sg15
F0.0
sg16
F0.0
sg17
F0.0
sg18
F151418.0
sg19
F1.3333333333333333
sg20
F0.0
sg21
F151418.0
sg22
F12.52523244208634
sg23
F7961.0
sg24
F0.0
sg25
F12089.037125667757
ssS'KOPPER MICHAEL J'
p106
(dp107
g3
F0.0
sg4
F0.0
sg5
F343.7062699457198
sg6
F1.0
sg7
F0.0
sg8
F602671.0
sg9
F0.0
sg10
F0.0
sg11
F0.0
sg12
F0.0
sg13
F0.0
sg14
F0.0
sg15
F13.718452150900802
sg16
F0.0
sg17
F894.4271909999159
sg18
F985032.0
sg19
F0.0
sg20
F0.0
sg21
F985032.0
sg22
F12.32076647003907
sg23
F2652612.0
sg24
F0.0
sg25
F79948.92220344766
ssS'LEFF DANIEL P'
p108
(dp109
g3
F2822.0
sg4
F0.0
sg5
F0.0
sg6
F0.0
sg7
F0.004961020552799433
sg8
F1387399.0
sg9
F67.0
sg10
F0.0
sg11
F0.0
sg12
F2672.0
sg13
F0.0
sg14
F63.0
sg15
F8.03398273468322
sg16
F0.0
sg17
F1000.0
sg18
F360528.0
sg19
F1.0634920634920635
sg20
F14.0
sg21
F360528.0
sg22
F12.519959601148688
sg23
F2664228.0
sg24
F0.0
sg25
F28796.259052379217
ssS'LAVORATO JOHN J'
p110
(dp111
g3
F7259.0
sg4
F0.0
sg5
F222.5690903966676
sg6
F0.0
sg7
F0.05661936905909905
sg8
F2035380.0
sg9
F528.0
sg10
F0.0
sg11
F0.0
sg12
F3962.0
sg13
F0.0
sg14
F2585.0
sg15
F7.347943823148687
sg16
F0.0
sg17
F0.0
sg18
F5167144.0
sg19
F0.20425531914893616
sg20
F411.0
sg21
F1008149.0
sg22
F12.7346075305592
sg23
F10425757.0
sg24
F4158995.0
sg25
F405756.04608154745
ssS'BERBERIAN DAVID'
p112
(dp113
g3
F0.0
sg4
F0.0
sg5
F109.05044704172468
sg6
F0.0
sg7
F0.0
sg8
F0.0
sg9
F0.0
sg10
F0.0
sg11
F0.0
sg12
F0.0
sg13
F0.0
sg14
F0.0
sg15
F0.0
sg16
F0.0
sg17
F0.0
sg18
F2493616.0
sg19
F0.0
sg20
F0.0
sg21
F869220.0
sg22
F12.28572912478096
sg23
F228474.0
sg24
F1624396.0
sg25
F202968.49903439963
ssS'DETMERING TIMOTHY J'
p114
(dp115
g3
F0.0
sg4
F875307.0
sg5
F228.59352571759334
sg6
F0.0
sg7
F0.0
sg8
F415657.0
sg9
F0.0
sg10
F-775241.0
sg11
F-315068.0
sg12
F0.0
sg13
F0.0
sg14
F0.0
sg15
F7.00850518208228
sg16
F0.0
sg17
F651.9202405202649
sg18
F2027865.0
sg19
F0.0
sg20
F0.0
sg21
F315068.0
sg22
F12.257245682687113
sg23
F1204583.0
sg24
F2027865.0
sg25
F165442.1435693568
ssS'WAKEHAM JOHN'
p116
(dp117
g3
F0.0
sg4
F0.0
sg5
F322.13816911381366
sg6
F0.0
sg7
F0.0
sg8
F0.0
sg9
F0.0
sg10
F0.0
sg11
F0.0
sg12
F0.0
sg13
F0.0
sg14
F0.0
sg15
F0.0
sg16
F109298.0
sg17
F0.0
sg18
F0.0
sg19
F0.0
sg20
F0.0
sg21
F0.0
sg22
F12.52523244208634
sg23
F213071.0
sg24
F0.0
sg25
F0.0
ssS'POWERS WILLIAM'
p118
(dp119
g3
F653.0
sg4
F0.0
sg5
F0.0
sg6
F0.0
sg7
F0.0
sg8
F0.0
sg9
F0.0
sg10
F-17500.0
sg11
F0.0
sg12
F12.0
sg13
F0.0
sg14
F26.0
sg15
F0.0
sg16
F17500.0
sg17
F0.0
sg18
F0.0
sg19
F0.0
sg20
F0.0
sg21
F0.0
sg22
F12.52523244208634
sg23
F0.0
sg24
F0.0
sg25
F0.0
ssS'GOLD JOSEPH'
p120
(dp121
g3
F0.0
sg4
F0.0
sg5
F0.0
sg6
F0.0
sg7
F0.0
sg8
F304805.0
sg9
F0.0
sg10
F0.0
sg11
F0.0
sg12
F0.0
sg13
F0.0
sg14
F0.0
sg15
F13.616192169944329
sg16
F0.0
sg17
F866.0254037844386
sg18
F877611.0
sg19
F0.0
sg20
F0.0
sg21
F441096.0
sg22
F12.516791081700296
sg23
F2146973.0
sg24
F436515.0
sg25
F70114.69587305633
ssS'BANNANTINE JAMES M'
p122
(dp123
g3
F566.0
sg4
F0.0
sg5
F237.2783175934961
sg6
F0.0
sg7
F0.0
sg8
F0.0
sg9
F39.0
sg10
F-5104.0
sg11
F-560222.0
sg12
F465.0
sg13
F0.0
sg14
F29.0
sg15
F13.669934345432106
sg16
F0.0
sg17
F0.0
sg18
F5243487.0
sg19
F1.3448275862068966
sg20
F0.0
sg21
F1757552.0
sg22
F6.169610732491456
sg23
F916197.0
sg24
F4046157.0
sg25
F849889.4383053787
ssS'DUNCAN JOHN H'
p124
(dp125
g3
F0.0
sg4
F0.0
sg5
F0.0
sg6
F0.0
sg7
F0.0
sg8
F0.0
sg9
F0.0
sg10
F-25000.0
sg11
F0.0
sg12
F0.0
sg13
F0.0
sg14
F0.0
sg15
F0.0
sg16
F102492.0
sg17
F0.0
sg18
F371750.0
sg19
F0.0
sg20
F0.0
sg21
F0.0
sg22
F12.52523244208634
sg23
F77492.0
sg24
F371750.0
sg25
F29680.087912051335
ssS'SHAPIRO RICHARD S'
p126
(dp127
g3
F15149.0
sg4
F0.0
sg5
F371.1697724761541
sg6
F0.0
sg7
F0.004290712258234867
sg8
F0.0
sg9
F74.0
sg10
F0.0
sg11
F0.0
sg12
F4527.0
sg13
F0.0
sg14
F1215.0
sg15
F6.559615237493242
sg16
F0.0
sg17
F806.2257748298549
sg18
F987001.0
sg19
F0.060905349794238686
sg20
F65.0
sg21
F379164.0
sg22
F12.50275286297675
sg23
F1057548.0
sg24
F607837.0
sg25
F78942.69452631629
ssS'SHERRIFF JOHN R'
p128
(dp129
g3
F3187.0
sg4
F0.0
sg5
F0.0
sg6
F0.0
sg7
F0.0072168183244430495
sg8
F554422.0
sg9
F28.0
sg10
F0.0
sg11
F0.0
sg12
F2103.0
sg13
F0.0
sg14
F92.0
sg15
F14.431877661013187
sg16
F0.0
sg17
F1224.744871391589
sg18
F3128982.0
sg19
F0.30434782608695654
sg20
F23.0
sg21
F1293424.0
sg22
F12.968701578055533
sg23
F4335388.0
sg24
F1835558.0
sg25
F241271.80205106892
ssS'SHELBY REX'
p130
(dp131
g3
F225.0
sg4
F0.0
sg5
F151.27458477880546
sg6
F1.0
sg7
F0.06222222222222222
sg8
F0.0
sg9
F13.0
sg10
F-4167.0
sg11
F0.0
sg12
F91.0
sg13
F0.0
sg14
F39.0
sg15
F14.268701772269432
sg16
F0.0
sg17
F447.21359549995793
sg18
F2493616.0
sg19
F0.3333333333333333
sg20
F14.0
sg21
F869220.0
sg22
F12.263610154171275
sg23
F2003885.0
sg24
F1624396.0
sg25
F203334.57837061427
ssS'LEMAISTRE CHARLES'
p132
(dp133
g3
F0.0
sg4
F0.0
sg5
F0.0
sg6
F0.0
sg7
F0.0
sg8
F0.0
sg9
F0.0
sg10
F-25000.0
sg11
F0.0
sg12
F0.0
sg13
F0.0
sg14
F0.0
sg15
F0.0
sg16
F112492.0
sg17
F0.0
sg18
F412878.0
sg19
F0.0
sg20
F0.0
sg21
F0.0
sg22
F12.52523244208634
sg23
F87492.0
sg24
F412878.0
sg25
F32963.69962865348
ssS'DEFFNER JOSEPH M'
p134
(dp135
g3
F714.0
sg4
F0.0
sg5
F204.0245083317198
sg6
F0.0
sg7
F0.0056022408963585435
sg8
F335349.0
sg9
F115.0
sg10
F0.0
sg11
F0.0
sg12
F552.0
sg13
F0.0
sg14
F74.0
sg15
F10.14854913915127
sg16
F0.0
sg17
F774.5966692414834
sg18
F159211.0
sg19
F1.554054054054054
sg20
F4.0
sg21
F141833.0
sg22
F12.236223505480668
sg23
F1208649.0
sg24
F17378.0
sg25
F13011.449155753699
ssS'KISHKILL JOSEPH G'
p136
(dp137
g3
F0.0
sg4
F0.0
sg5
F341.0791696952483
sg6
F0.0
sg7
F0.0
sg8
F0.0
sg9
F0.0
sg10
F-51042.0
sg11
F0.0
sg12
F0.0
sg13
F0.0
sg14
F0.0
sg15
F13.050562280827428
sg16
F0.0
sg17
F0.0
sg18
F1034346.0
sg19
F0.0
sg20
F0.0
sg21
F1034346.0
sg22
F12.068229111831808
sg23
F704896.0
sg24
F0.0
sg25
F85708.18389467907
ssS'WHALLEY LAWRENCE G'
p138
(dp139
g3
F6019.0
sg4
F0.0
sg5
F240.4953221998299
sg6
F0.0
sg7
F0.003987373317826882
sg8
F808346.0
sg9
F186.0
sg10
F0.0
sg11
F0.0
sg12
F3920.0
sg13
F0.0
sg14
F556.0
sg15
F12.614955240704797
sg16
F0.0
sg17
F1732.0508075688772
sg18
F6079137.0
sg19
F0.3345323741007194
sg20
F24.0
sg21
F2796177.0
sg22
F13.142881434993724
sg23
F4677574.0
sg24
F3282960.0
sg25
F462542.17768517084
ssS'MCCARTY DANNY J'
p140
(dp141
g3
F1433.0
sg4
F0.0
sg5
F0.0
sg6
F0.0
sg7
F0.0013956734124214933
sg8
F0.0
sg9
F25.0
sg10
F0.0
sg11
F0.0
sg12
F508.0
sg13
F0.0
sg14
F215.0
sg15
F0.0
sg16
F0.0
sg17
F0.0
sg18
F758931.0
sg19
F0.11627906976744186
sg20
F2.0
sg21
F94556.0
sg22
F12.52523244208634
sg23
F0.0
sg24
F664375.0
sg25
F60592.16892853001
ssS'MCCONNELL MICHAEL S'
p142
(dp143
g3
F3329.0
sg4
F0.0
sg5
F285.243755409299
sg6
F0.0
sg7
F0.058275758486031844
sg8
F554422.0
sg9
F92.0
sg10
F0.0
sg11
F0.0
sg12
F2189.0
sg13
F0.0
sg14
F2742.0
sg15
F6.293419278846481
sg16
F0.0
sg17
F1048.8088481701516
sg18
F3101279.0
sg19
F0.03355215171407731
sg20
F194.0
sg21
F1478269.0
sg22
F12.807759476171716
sg23
F2101364.0
sg24
F1623010.0
sg25
F242140.63402500615
ssS'DELAINEY DAVID W'
p144
(dp145
g3
F3093.0
sg4
F0.0
sg5
F293.5540836030049
sg6
F1.0
sg7
F0.19689621726479145
sg8
F1294981.0
sg9
F66.0
sg10
F0.0
sg11
F0.0
sg12
F2097.0
sg13
F0.0
sg14
F3069.0
sg15
F7.415776975415394
sg16
F0.0
sg17
F1732.0508075688772
sg18
F3614261.0
sg19
F0.021505376344086023
sg20
F609.0
sg21
F1323148.0
sg22
F12.808101846721332
sg23
F4747979.0
sg24
F2291113.0
sg25
F282185.52938234113
ssS'SULLIVAN-SHAKLOVITZ COLLEEN'
p146
(dp147
g3
F0.0
sg4
F181993.0
sg5
F0.0
sg6
F0.0
sg7
F0.0
sg8
F554422.0
sg9
F0.0
sg10
F0.0
sg11
F0.0
sg12
F0.0
sg13
F0.0
sg14
F0.0
sg15
F5.093750200806762
sg16
F0.0
sg17
F316.22776601683796
sg18
F1362375.0
sg19
F0.0
sg20
F0.0
sg21
F0.0
sg22
F12.000154874881032
sg23
F999356.0
sg24
F1362375.0
sg25
F113529.78475734101
ssS'WROBEL BRUCE'
p148
(dp149
g3
F0.0
sg4
F0.0
sg5
F0.0
sg6
F0.0
sg7
F0.0
sg8
F0.0
sg9
F0.0
sg10
F0.0
sg11
F0.0
sg12
F0.0
sg13
F0.0
sg14
F0.0
sg15
F0.0
sg16
F0.0
sg17
F0.0
sg18
F139130.0
sg19
F0.0
sg20
F0.0
sg21
F0.0
sg22
F12.52523244208634
sg23
F0.0
sg24
F139130.0
sg25
F11107.977488106799
ssS'LINDHOLM TOD A'
p150
(dp151
g3
F0.0
sg4
F204075.0
sg5
F240.26443765151762
sg6
F0.0
sg7
F0.0
sg8
F175000.0
sg9
F0.0
sg10
F0.0
sg11
F0.0
sg12
F0.0
sg13
F0.0
sg14
F0.0
sg15
F7.875119281040293
sg16
F0.0
sg17
F447.21359549995793
sg18
F3064208.0
sg19
F0.0
sg20
F0.0
sg21
F514847.0
sg22
F12.37352588129117
sg23
F875889.0
sg24
F2549361.0
sg25
F247642.26699788918
ssS'MEYER JEROME J'
p152
(dp153
g3
F0.0
sg4
F0.0
sg5
F46.37887450122092
sg6
F0.0
sg7
F0.0
sg8
F0.0
sg9
F0.0
sg10
F-38346.0
sg11
F0.0
sg12
F0.0
sg13
F0.0
sg14
F0.0
sg15
F0.0
sg16
F38346.0
sg17
F0.0
sg18
F0.0
sg19
F0.0
sg20
F0.0
sg21
F0.0
sg22
F12.52523244208634
sg23
F2151.0
sg24
F0.0
sg25
F0.0
ssS'LAY KENNETH L'
p154
(dp155
g3
F4273.0
sg4
F202911.0
sg5
F315.9620230344147
sg6
F1.0
sg7
F0.003744441844137608
sg8
F3600000.0
sg9
F123.0
sg10
F-300000.0
sg11
F0.0
sg12
F2411.0
sg13
F81525000.0
sg14
F36.0
sg15
F16.153436732679936
sg16
F0.0
sg17
F2645.7513110645905
sg18
F49110078.0
sg19
F3.4166666666666665
sg20
F16.0
sg21
F14761694.0
sg22
F13.885336948644234
sg23
F103559793.0
sg24
F34348384.0
sg25
F3536830.1238663937
ssS'BUTTS ROBERT H'
p156
(dp157
g3
F0.0
sg4
F0.0
sg5
F97.0051545022222
sg6
F0.0
sg7
F0.0
sg8
F175000.0
sg9
F0.0
sg10
F-75000.0
sg11
F0.0
sg12
F0.0
sg13
F0.0
sg14
F0.0
sg15
F11.922761008795927
sg16
F0.0
sg17
F866.0254037844386
sg18
F417619.0
sg19
F0.0
sg20
F0.0
sg21
F417619.0
sg22
F12.474254569934315
sg23
F1271582.0
sg24
F0.0
sg25
F33478.47341568235
ssS'OLSON CINDY K'
p158
(dp159
g3
F1184.0
sg4
F77716.0
sg5
F252.5688025073564
sg6
F0.0
sg7
F0.01266891891891892
sg8
F100000.0
sg9
F20.0
sg10
F0.0
sg11
F0.0
sg12
F856.0
sg13
F0.0
sg14
F52.0
sg15
F6.880384082186005
sg16
F0.0
sg17
F866.0254037844386
sg18
F2606763.0
sg19
F0.38461538461538464
sg20
F15.0
sg21
F969729.0
sg22
F12.704053122503483
sg23
F1321557.0
sg24
F1637034.0
sg25
F205191.44361750802
ssS'MCDONALD REBECCA'
p160
(dp161
g3
F894.0
sg4
F0.0
sg5
F0.0
sg6
F0.0
sg7
F0.0011185682326621924
sg8
F0.0
sg9
F54.0
sg10
F0.0
sg11
F0.0
sg12
F720.0
sg13
F0.0
sg14
F13.0
sg15
F0.0
sg16
F0.0
sg17
F0.0
sg18
F1691366.0
sg19
F4.153846153846154
sg20
F1.0
sg21
F934065.0
sg22
F12.52523244208634
sg23
F0.0
sg24
F757301.0
sg25
F135036.6955519963
ssS'CUMBERLAND MICHAEL S'
p162
(dp163
g3
F0.0
sg4
F0.0
sg5
F149.47909552843836
sg6
F0.0
sg7
F0.0
sg8
F275000.0
sg9
F0.0
sg10
F0.0
sg11
F0.0
sg12
F0.0
sg13
F0.0
sg14
F0.0
sg15
F6.570882962339584
sg16
F0.0
sg17
F570.087712549569
sg18
F207940.0
sg19
F0.0
sg20
F0.0
sg21
F207940.0
sg22
F12.127570417375216
sg23
F807956.0
sg24
F0.0
sg25
F17146.055874644404
ssS'GAHN ROBERT S'
p164
(dp165
g3
F0.0
sg4
F73122.0
sg5
F223.78561169118984
sg6
F0.0
sg7
F0.0
sg8
F0.0
sg9
F0.0
sg10
F-1042.0
sg11
F0.0
sg12
F0.0
sg13
F0.0
sg14
F0.0
sg15
F11.245673274029956
sg16
F0.0
sg17
F714.0518188479041
sg18
F318607.0
sg19
F0.0
sg20
F0.0
sg21
F235370.0
sg22
F12.16529752491132
sg23
F900585.0
sg24
F83237.0
sg25
F26189.823910806695
ssS'MCCLELLAN GEORGE'
p166
(dp167
g3
F1744.0
sg4
F0.0
sg5
F478.2917519673531
sg6
F0.0
sg7
F0.0
sg8
F0.0
sg9
F52.0
sg10
F-125000.0
sg11
F0.0
sg12
F1469.0
sg13
F0.0
sg14
F49.0
sg15
F10.851044366284281
sg16
F0.0
sg17
F948.6832980505138
sg18
F947861.0
sg19
F1.0612244897959184
sg20
F0.0
sg21
F441096.0
sg22
F12.481482217979835
sg23
F1318763.0
sg24
F506765.0
sg25
F75941.38127558172
ssS'HERMANN ROBERT J'
p168
(dp169
g3
F0.0
sg4
F0.0
sg5
F219.9022510116711
sg6
F0.0
sg7
F0.0
sg8
F150000.0
sg9
F0.0
sg10
F-280000.0
sg11
F0.0
sg12
F0.0
sg13
F0.0
sg14
F0.0
sg15
F12.939502475189778
sg16
F0.0
sg17
F836.6600265340755
sg18
F668132.0
sg19
F0.0
sg20
F0.0
sg21
F480632.0
sg22
F12.478630927836107
sg23
F1297461.0
sg24
F187500.0
sg25
F53542.09158551173
ssS'SCRIMSHAW MATTHEW'
p170
(dp171
g3
F0.0
sg4
F0.0
sg5
F0.0
sg6
F0.0
sg7
F0.0
sg8
F0.0
sg9
F0.0
sg10
F0.0
sg11
F0.0
sg12
F0.0
sg13
F0.0
sg14
F0.0
sg15
F0.0
sg16
F0.0
sg17
F0.0
sg18
F759557.0
sg19
F0.0
sg20
F0.0
sg21
F0.0
sg22
F12.52523244208634
sg23
F0.0
sg24
F759557.0
sg25
F60642.14804092529
ssS'GATHMANN WILLIAM D'
p172
(dp173
g3
F0.0
sg4
F0.0
sg5
F0.0
sg6
F0.0
sg7
F0.0
sg8
F0.0
sg9
F0.0
sg10
F0.0
sg11
F-72419.0
sg12
F0.0
sg13
F0.0
sg14
F0.0
sg15
F0.0
sg16
F0.0
sg17
F0.0
sg18
F1945360.0
sg19
F0.0
sg20
F0.0
sg21
F264013.0
sg22
F12.52523244208634
sg23
F0.0
sg24
F1753766.0
sg25
F155315.28129277253
ssS'HAEDICKE MARK E'
p174
(dp175
g3
F4009.0
sg4
F2157527.0
sg5
F275.98731854924057
sg6
F0.0
sg7
F0.015215764529807932
sg8
F983346.0
sg9
F180.0
sg10
F-934484.0
sg11
F-329825.0
sg12
F1847.0
sg13
F0.0
sg14
F1941.0
sg15
F10.866337390190237
sg16
F0.0
sg17
F1072.3805294763608
sg18
F803094.0
sg19
F0.09273570324574962
sg20
F61.0
sg21
F524169.0
sg22
F12.83234791805487
sg23
F3859065.0
sg24
F608750.0
sg25
F62583.55876324566
ssS'BOWEN JR RAYMOND M'
p176
(dp177
g3
F1858.0
sg4
F0.0
sg5
F256.7235867621049
sg6
F1.0
sg7
F0.008073196986006458
sg8
F974293.0
sg9
F140.0
sg10
F-833.0
sg11
F0.0
sg12
F1593.0
sg13
F0.0
sg14
F27.0
sg15
F7.3914152346753585
sg16
F0.0
sg17
F1161.8950038622252
sg18
F252055.0
sg19
F5.185185185185185
sg20
F15.0
sg21
F252055.0
sg22
F12.537539519052972
sg23
F2669589.0
sg24
F0.0
sg25
F20104.024367537073
ssS'GILLIS JOHN'
p178
(dp179
g3
F0.0
sg4
F0.0
sg5
F0.0
sg6
F0.0
sg7
F0.0
sg8
F0.0
sg9
F0.0
sg10
F0.0
sg11
F0.0
sg12
F0.0
sg13
F0.0
sg14
F0.0
sg15
F0.0
sg16
F0.0
sg17
F0.0
sg18
F85641.0
sg19
F0.0
sg20
F0.0
sg21
F75838.0
sg22
F12.52523244208634
sg23
F0.0
sg24
F9803.0
sg25
F6837.477898792168
ssS'FITZGERALD JAY L'
p180
(dp181
g3
F936.0
sg4
F0.0
sg5
F154.49919093639292
sg6
F0.0
sg7
F0.008547008547008548
sg8
F556416.0
sg9
F1.0
sg10
F0.0
sg11
F0.0
sg12
F723.0
sg13
F0.0
sg14
F16.0
sg15
F12.561699540457354
sg16
F0.0
sg17
F591.6079783099616
sg18
F1621236.0
sg19
F0.0625
sg20
F8.0
sg21
F956775.0
sg22
F12.201853758528552
sg23
F1414857.0
sg24
F664461.0
sg25
F132868.00777028067
ssS'MORAN MICHAEL P'
p182
(dp183
g3
F672.0
sg4
F0.0
sg5
F0.0
sg6
F0.0
sg7
F0.0
sg8
F0.0
sg9
F0.0
sg10
F0.0
sg11
F0.0
sg12
F127.0
sg13
F0.0
sg14
F19.0
sg15
F0.0
sg16
F0.0
sg17
F0.0
sg18
F221141.0
sg19
F0.0
sg20
F0.0
sg21
F161602.0
sg22
F12.52523244208634
sg23
F0.0
sg24
F59539.0
sg25
F17655.640406076516
ssS'REDMOND BRIAN L'
p184
(dp185
g3
F1671.0
sg4
F0.0
sg5
F121.19818480488888
sg6
F0.0
sg7
F0.029323758228605626
sg8
F0.0
sg9
F204.0
sg10
F0.0
sg11
F0.0
sg12
F1063.0
sg13
F0.0
sg14
F221.0
sg15
F0.0
sg16
F0.0
sg17
F0.0
sg18
F7890324.0
sg19
F0.9230769230769231
sg20
F49.0
sg21
F381285.0
sg22
F11.48082573731012
sg23
F111529.0
sg24
F7509039.0
sg25
F687261.0194193793
ssS'BAZELIDES PHILIP J'
p186
(dp187
g3
F0.0
sg4
F684694.0
sg5
F0.0
sg6
F0.0
sg7
F0.0
sg8
F93750.0
sg9
F0.0
sg10
F0.0
sg11
F0.0
sg12
F0.0
sg13
F0.0
sg14
F0.0
sg15
F6.774223886357614
sg16
F0.0
sg17
F0.0
sg18
F1599641.0
sg19
F0.0
sg20
F0.0
sg21
F0.0
sg22
F11.29996736538096
sg23
F860136.0
sg24
F1599641.0
sg25
F141561.5592750051
ssS'BELDEN TIMOTHY N'
p188
(dp189
g3
F7991.0
sg4
F2144013.0
sg5
F131.73837709642547
sg6
F1.0
sg7
F0.013515204605180828
sg8
F0.0
sg9
F228.0
sg10
F-2334434.0
sg11
F0.0
sg12
F5521.0
sg13
F0.0
sg14
F484.0
sg15
F12.258185853696537
sg16
F0.0
sg17
F2291.2876292600195
sg18
F1110705.0
sg19
F0.47107438016528924
sg20
F108.0
sg21
F157569.0
sg22
F12.273731294003989
sg23
F5501630.0
sg24
F953136.0
sg25
F90494.48561274972
ssS'DURAN WILLIAM D'
p190
(dp191
g3
F904.0
sg4
F0.0
sg5
F160.57708429287163
sg6
F0.0
sg7
F0.00331858407079646
sg8
F1105218.0
sg9
F106.0
sg10
F0.0
sg11
F0.0
sg12
F599.0
sg13
F0.0
sg14
F12.0
sg15
F7.358193752733032
sg16
F0.0
sg17
F866.0254037844386
sg18
F1640910.0
sg19
F8.833333333333334
sg20
F3.0
sg21
F189041.0
sg22
F12.258157376649036
sg23
F2093263.0
sg24
F1451869.0
sg25
F133862.69645434828
ssS'THORN TERENCE H'
p192
(dp193
g3
F266.0
sg4
F16586.0
sg5
F214.81387292258384
sg6
F0.0
sg7
F0.0
sg8
F200000.0
sg9
F0.0
sg10
F0.0
sg11
F0.0
sg12
F73.0
sg13
F0.0
sg14
F41.0
sg15
F12.963672406034851
sg16
F0.0
sg17
F0.0
sg18
F4817796.0
sg19
F0.0
sg20
F0.0
sg21
F365320.0
sg22
F12.31085599465944
sg23
F911453.0
sg24
F4452476.0
sg25
F391345.3298527741
ssS'FASTOW ANDREW S'
p194
(dp195
g3
F0.0
sg4
F0.0
sg5
F236.47621444872632
sg6
F1.0
sg7
F0.0
sg8
F1736055.0
sg9
F0.0
sg10
F-1386055.0
sg11
F0.0
sg12
F0.0
sg13
F0.0
sg14
F0.0
sg15
F12.533450078087931
sg16
F0.0
sg17
F1140.175425099138
sg18
F1794412.0
sg19
F0.0
sg20
F0.0
sg21
F1794412.0
sg22
F12.99611738171019
sg23
F2424083.0
sg24
F0.0
sg25
F138072.92957551518
ssS'FOY JOE'
p196
(dp197
g3
F57.0
sg4
F181755.0
sg5
F0.0
sg6
F0.0
sg7
F0.0
sg8
F0.0
sg9
F0.0
sg10
F0.0
sg11
F0.0
sg12
F2.0
sg13
F0.0
sg14
F13.0
sg15
F0.0
sg16
F0.0
sg17
F0.0
sg18
F343434.0
sg19
F0.0
sg20
F0.0
sg21
F0.0
sg22
F12.52523244208634
sg23
F181755.0
sg24
F343434.0
sg25
F27419.371383960828
ssS'CALGER CHRISTOPHER F'
p198
(dp199
g3
F2598.0
sg4
F0.0
sg5
F189.25643978475344
sg6
F1.0
sg7
F0.00962278675904542
sg8
F375304.0
sg9
F199.0
sg10
F-262500.0
sg11
F0.0
sg12
F2188.0
sg13
F0.0
sg14
F144.0
sg15
F6.18826412308259
sg16
F0.0
sg17
F1118.033988749895
sg18
F126027.0
sg19
F1.3819444444444444
sg20
F25.0
sg21
F126027.0
sg22
F12.38918555578803
sg23
F1639297.0
sg24
F0.0
sg25
F10172.339370695936
ssS'RICE KENNETH D'
p200
(dp201
g3
F905.0
sg4
F0.0
sg5
F216.6794868002045
sg6
F1.0
sg7
F0.004419889502762431
sg8
F1617011.0
sg9
F42.0
sg10
F-3504386.0
sg11
F0.0
sg12
F864.0
sg13
F0.0
sg14
F18.0
sg15
F12.071626548977251
sg16
F0.0
sg17
F1322.8756555322952
sg18
F22542539.0
sg19
F2.3333333333333335
sg20
F4.0
sg21
F2748364.0
sg22
F12.949525507948925
sg23
F505050.0
sg24
F19794175.0
sg25
F1740800.3857873022
ssS'KAMINSKI WINCENTY J'
p202
(dp203
g3
F4607.0
sg4
F0.0
sg5
F289.110705439975
sg6
F0.0
sg7
F0.03711742999782939
sg8
F323466.0
sg9
F41.0
sg10
F0.0
sg11
F0.0
sg12
F583.0
sg13
F0.0
sg14
F14368.0
sg15
F8.448914350662942
sg16
F0.0
sg17
F632.4555320336759
sg18
F976037.0
sg19
F0.002853563474387528
sg20
F171.0
sg21
F126027.0
sg22
F12.524897216969846
sg23
F1086821.0
sg24
F850010.0
sg25
F77927.7452814206
ssS'COX DAVID'
p204
(dp205
g3
F102.0
sg4
F0.0
sg5
F166.91614661260306
sg6
F0.0
sg7
F0.0392156862745098
sg8
F0.0
sg9
F0.0
sg10
F-41250.0
sg11
F0.0
sg12
F71.0
sg13
F0.0
sg14
F33.0
sg15
F6.20455776256869
sg16
F0.0
sg17
F894.4271909999159
sg18
F495633.0
sg19
F0.0
sg20
F4.0
sg21
F378082.0
sg22
F12.658068223764037
sg23
F1101393.0
sg24
F117551.0
sg25
F39155.5007634978
ssS'OVERDYKE JR JERE C'
p206
(dp207
g3
F0.0
sg4
F0.0
sg5
F137.23702124426922
sg6
F0.0
sg7
F0.0
sg8
F135836.0
sg9
F0.0
sg10
F0.0
sg11
F0.0
sg12
F0.0
sg13
F0.0
sg14
F0.0
sg15
F5.176149732573829
sg16
F0.0
sg17
F0.0
sg18
F7307594.0
sg19
F0.0
sg20
F0.0
sg21
F2041016.0
sg22
F11.461021457819806
sg23
F249787.0
sg24
F5266578.0
sg25
F637604.076294095
ssS'PEREIRA PAULO V. FERRAZ'
p208
(dp209
g3
F0.0
sg4
F0.0
sg5
F167.15860731652438
sg6
F0.0
sg7
F0.0
sg8
F0.0
sg9
F0.0
sg10
F-101250.0
sg11
F0.0
sg12
F0.0
sg13
F0.0
sg14
F0.0
sg15
F0.0
sg16
F101250.0
sg17
F0.0
sg18
F0.0
sg19
F0.0
sg20
F0.0
sg21
F0.0
sg22
F12.52523244208634
sg23
F27942.0
sg24
F0.0
sg25
F0.0
ssS'STABLER FRANK'
p210
(dp211
g3
F0.0
sg4
F0.0
sg5
F128.50680915811427
sg6
F0.0
sg7
F0.0
sg8
F0.0
sg9
F0.0
sg10
F0.0
sg11
F0.0
sg12
F0.0
sg13
F0.0
sg14
F0.0
sg15
F12.782888236575973
sg16
F0.0
sg17
F707.1067811865476
sg18
F511734.0
sg19
F0.0
sg20
F0.0
sg21
F511734.0
sg22
F12.38632122185069
sg23
F1112087.0
sg24
F0.0
sg25
F41314.44605983986
ssS'SKILLING JEFFREY K'
p212
(dp213
g3
F3627.0
sg4
F0.0
sg5
F171.27755252805312
sg6
F1.0
sg7
F0.008271298593879239
sg8
F1920000.0
sg9
F88.0
sg10
F0.0
sg11
F0.0
sg12
F2042.0
sg13
F0.0
sg14
F108.0
sg15
F10.004373070309986
sg16
F0.0
sg17
F2366.4319132398464
sg18
F26093672.0
sg19
F0.8148148148148148
sg20
F30.0
sg21
F6843672.0
sg22
F12.52523244208634
sg23
F8682716.0
sg24
F19250000.0
sg25
F2083288.443599818
ssS'BLAKE JR. NORMAN P'
p214
(dp215
g3
F0.0
sg4
F0.0
sg5
F35.76310948449533
sg6
F0.0
sg7
F0.0
sg8
F0.0
sg9
F0.0
sg10
F-113784.0
sg11
F0.0
sg12
F0.0
sg13
F0.0
sg14
F0.0
sg15
F0.0
sg16
F113784.0
sg17
F0.0
sg18
F0.0
sg19
F0.0
sg20
F0.0
sg21
F0.0
sg22
F12.52523244208634
sg23
F1279.0
sg24
F0.0
sg25
F0.0
ssS'SHERRICK JEFFREY B'
p216
(dp217
g3
F613.0
sg4
F0.0
sg5
F0.0
sg6
F0.0
sg7
F0.02936378466557912
sg8
F0.0
sg9
F39.0
sg10
F0.0
sg11
F0.0
sg12
F583.0
sg13
F0.0
sg14
F25.0
sg15
F0.0
sg16
F0.0
sg17
F0.0
sg18
F1832468.0
sg19
F1.56
sg20
F18.0
sg21
F405999.0
sg22
F12.52523244208634
sg23
F0.0
sg24
F1426469.0
sg25
F146302.11522803197
ssS'PRENTICE JAMES'
p218
(dp219
g3
F0.0
sg4
F564348.0
sg5
F0.0
sg6
F0.0
sg7
F0.0
sg8
F0.0
sg9
F0.0
sg10
F0.0
sg11
F0.0
sg12
F0.0
sg13
F0.0
sg14
F0.0
sg15
F0.0
sg16
F0.0
sg17
F0.0
sg18
F1095040.0
sg19
F0.0
sg20
F0.0
sg21
F208809.0
sg22
F12.52523244208634
sg23
F564348.0
sg24
F886231.0
sg25
F87426.72082639595
ssS'GRAY RODNEY'
p220
(dp221
g3
F0.0
sg4
F93585.0
sg5
F0.0
sg6
F0.0
sg7
F0.0
sg8
F365625.0
sg9
F0.0
sg10
F0.0
sg11
F0.0
sg12
F0.0
sg13
F0.0
sg14
F0.0
sg15
F13.431073796239872
sg16
F0.0
sg17
F0.0
sg18
F0.0
sg19
F0.0
sg20
F0.0
sg21
F0.0
sg22
F8.797246236703527
sg23
F1146658.0
sg24
F0.0
sg25
F0.0
ssS'PICKERING MARK R'
p222
(dp223
g3
F898.0
sg4
F0.0
sg5
F177.91290003819284
sg6
F0.0
sg7
F0.0
sg8
F0.0
sg9
F7.0
sg10
F0.0
sg11
F0.0
sg12
F728.0
sg13
F400000.0
sg14
F67.0
sg15
F0.0
sg16
F0.0
sg17
F547.7225575051662
sg18
F28798.0
sg19
F0.1044776119402985
sg20
F0.0
sg21
F0.0
sg22
F13.392448528201744
sg23
F1386690.0
sg24
F28798.0
sg25
F2150.31627258879
ssS'NOLES JAMES L'
p224
(dp225
g3
F0.0
sg4
F774401.0
sg5
F0.0
sg6
F0.0
sg7
F0.0
sg8
F0.0
sg9
F0.0
sg10
F0.0
sg11
F-94556.0
sg12
F0.0
sg13
F0.0
sg14
F0.0
sg15
F0.0
sg16
F0.0
sg17
F0.0
sg18
F368705.0
sg19
F0.0
sg20
F0.0
sg21
F463261.0
sg22
F12.52523244208634
sg23
F774401.0
sg24
F0.0
sg25
F29436.978651278783
ssS'KEAN STEVEN J'
p226
(dp227
g3
F12754.0
sg4
F0.0
sg5
F204.8243149628481
sg6
F0.0
sg7
F0.03034342167163243
sg8
F300000.0
sg9
F140.0
sg10
F0.0
sg11
F0.0
sg12
F3639.0
sg13
F0.0
sg14
F6759.0
sg15
F7.116394144093465
sg16
F0.0
sg17
F1000.0
sg18
F6153642.0
sg19
F0.020713123243083296
sg20
F387.0
sg21
F4131594.0
sg22
F12.910008913999112
sg23
F1747522.0
sg24
F2022048.0
sg25
F476656.6809514151
ssS'FOWLER PEGGY'
p228
(dp229
g3
F517.0
sg4
F0.0
sg5
F0.0
sg6
F0.0
sg7
F0.0
sg8
F0.0
sg9
F0.0
sg10
F0.0
sg11
F0.0
sg12
F10.0
sg13
F0.0
sg14
F36.0
sg15
F0.0
sg16
F0.0
sg17
F0.0
sg18
F1884748.0
sg19
F0.0
sg20
F0.0
sg21
F560170.0
sg22
F12.52523244208634
sg23
F0.0
sg24
F1324578.0
sg25
F150476.08966257682
ssS'WASAFF GEORGE'
p230
(dp231
g3
F400.0
sg4
F831299.0
sg5
F0.0
sg6
F0.0
sg7
F0.0175
sg8
F200000.0
sg9
F22.0
sg10
F-583325.0
sg11
F0.0
sg12
F337.0
sg13
F0.0
sg14
F30.0
sg15
F7.262628600974241
sg16
F0.0
sg17
F570.087712549569
sg18
F2056427.0
sg19
F0.7333333333333333
sg20
F7.0
sg21
F388167.0
sg22
F12.468425371469557
sg23
F1034395.0
sg24
F1668260.0
sg25
F164930.77022424564
ssS'WHITE JR THOMAS E'
p232
(dp233
g3
F0.0
sg4
F0.0
sg5
F285.2244730032821
sg6
F0.0
sg7
F0.0
sg8
F0.0
sg9
F0.0
sg10
F0.0
sg11
F0.0
sg12
F0.0
sg13
F0.0
sg14
F0.0
sg15
F13.897518103310182
sg16
F0.0
sg17
F670.820393249937
sg18
F15144123.0
sg19
F0.0
sg20
F0.0
sg21
F13847074.0
sg22
F12.668371670390357
sg23
F1934359.0
sg24
F1297049.0
sg25
F1195427.7466768827
ssS'CHRISTODOULOU DIOMEDES'
p234
(dp235
g3
F0.0
sg4
F0.0
sg5
F0.0
sg6
F0.0
sg7
F0.0
sg8
F0.0
sg9
F0.0
sg10
F0.0
sg11
F0.0
sg12
F0.0
sg13
F0.0
sg14
F0.0
sg15
F0.0
sg16
F0.0
sg17
F0.0
sg18
F6077885.0
sg19
F0.0
sg20
F0.0
sg21
F950730.0
sg22
F12.52523244208634
sg23
F0.0
sg24
F5127155.0
sg25
F485251.2740264644
ssS'ALLEN PHILLIP K'
p236
(dp237
g3
F2902.0
sg4
F2869717.0
sg5
F117.76247280012423
sg6
F0.0
sg7
F0.022398345968297727
sg8
F304805.0
sg9
F47.0
sg10
F-3081055.0
sg11
F-126027.0
sg12
F1407.0
sg13
F0.0
sg14
F2195.0
sg15
F5.030437921392435
sg16
F0.0
sg17
F2043.281674170255
sg18
F1729541.0
sg19
F0.0214123006833713
sg20
F65.0
sg21
F126027.0
sg22
F12.215805130874553
sg23
F4484442.0
sg24
F1729541.0
sg25
F141582.2355931916
ssS'SHARP VICTORIA T'
p238
(dp239
g3
F3136.0
sg4
F187469.0
sg5
F341.082101553277
sg6
F0.0
sg7
F0.001913265306122449
sg8
F422158.0
sg9
F24.0
sg10
F0.0
sg11
F0.0
sg12
F2477.0
sg13
F0.0
sg14
F136.0
sg15
F7.784057002639929
sg16
F0.0
sg17
F774.5966692414834
sg18
F494136.0
sg19
F0.17647058823529413
sg20
F6.0
sg21
F213063.0
sg22
F12.421776591480489
sg23
F1576511.0
sg24
F281073.0
sg25
F39779.817030271224
ssS'JAEDICKE ROBERT'
p240
(dp241
g3
F0.0
sg4
F0.0
sg5
F0.0
sg6
F0.0
sg7
F0.0
sg8
F0.0
sg9
F0.0
sg10
F-25000.0
sg11
F-44093.0
sg12
F0.0
sg13
F0.0
sg14
F0.0
sg15
F0.0
sg16
F108750.0
sg17
F0.0
sg18
F431750.0
sg19
F0.0
sg20
F0.0
sg21
F44093.0
sg22
F12.52523244208634
sg23
F83750.0
sg24
F431750.0
sg25
F34470.418173579455
ssS'WINOKUR JR. HERBERT S'
p242
(dp243
g3
F0.0
sg4
F0.0
sg5
F37.589892258425
sg6
F0.0
sg7
F0.0
sg8
F0.0
sg9
F0.0
sg10
F-25000.0
sg11
F0.0
sg12
F0.0
sg13
F0.0
sg14
F0.0
sg15
F0.0
sg16
F108579.0
sg17
F0.0
sg18
F0.0
sg19
F0.0
sg20
F0.0
sg21
F0.0
sg22
F12.52523244208634
sg23
F84992.0
sg24
F0.0
sg25
F0.0
ssS'BROWN MICHAEL'
p244
(dp245
g3
F1486.0
sg4
F0.0
sg5
F222.00900882621858
sg6
F0.0
sg7
F0.0006729475100942127
sg8
F0.0
sg9
F13.0
sg10
F0.0
sg11
F0.0
sg12
F761.0
sg13
F0.0
sg14
F41.0
sg15
F0.0
sg16
F0.0
sg17
F0.0
sg18
F0.0
sg19
F0.3170731707317073
sg20
F1.0
sg21
F0.0
sg22
F12.52523244208634
sg23
F49288.0
sg24
F0.0
sg25
F0.0
ssS'BADUM JAMES P'
p246
(dp247
g3
F0.0
sg4
F178980.0
sg5
F59.04235767650204
sg6
F0.0
sg7
F0.0
sg8
F0.0
sg9
F0.0
sg10
F0.0
sg11
F0.0
sg12
F0.0
sg13
F0.0
sg14
F0.0
sg15
F0.0
sg16
F0.0
sg17
F0.0
sg18
F257817.0
sg19
F0.0
sg20
F0.0
sg21
F0.0
sg22
F12.52523244208634
sg23
F182466.0
sg24
F257817.0
sg25
F20583.809617273273
ssS'HUGHES JAMES A'
p248
(dp249
g3
F719.0
sg4
F0.0
sg5
F0.0
sg6
F0.0
sg7
F0.006954102920723227
sg8
F0.0
sg9
F35.0
sg10
F0.0
sg11
F0.0
sg12
F589.0
sg13
F0.0
sg14
F34.0
sg15
F0.0
sg16
F0.0
sg17
F0.0
sg18
F1118394.0
sg19
F1.0294117647058822
sg20
F5.0
sg21
F363428.0
sg22
F12.52523244208634
sg23
F0.0
sg24
F754966.0
sg25
F89291.27704185808
ssS'REYNOLDS LAWRENCE'
p250
(dp251
g3
F0.0
sg4
F51365.0
sg5
F91.70059977993601
sg6
F0.0
sg7
F0.0
sg8
F156250.0
sg9
F0.0
sg10
F-200000.0
sg11
F-140264.0
sg12
F0.0
sg13
F0.0
sg14
F0.0
sg15
F12.21628531820634
sg16
F0.0
sg17
F316.22776601683796
sg18
F4221891.0
sg19
F0.0
sg20
F0.0
sg21
F201483.0
sg22
F11.243737975154612
sg23
F394475.0
sg24
F4160672.0
sg25
F375488.205908849
ssS'DIMICHELE RICHARD G'
p252
(dp253
g3
F0.0
sg4
F0.0
sg5
F189.24058761270004
sg6
F0.0
sg7
F0.0
sg8
F694862.0
sg9
F0.0
sg10
F0.0
sg11
F0.0
sg12
F0.0
sg13
F0.0
sg14
F0.0
sg15
F12.833854296408568
sg16
F0.0
sg17
F1000.0
sg18
F8317782.0
sg19
F0.0
sg20
F0.0
sg21
F126027.0
sg22
F12.479106707791148
sg23
F2368151.0
sg24
F8191755.0
sg25
F666536.6516023871
ssS'BHATNAGAR SANJAY'
p254
(dp255
g3
F523.0
sg4
F0.0
sg5
F0.0
sg6
F0.0
sg7
F0.0019120458891013384
sg8
F0.0
sg9
F0.0
sg10
F0.0
sg11
F15456290.0
sg12
F463.0
sg13
F0.0
sg14
F29.0
sg15
F11.834030224460319
sg16
F137864.0
sg17
F0.0
sg18
F0.0
sg19
F0.0
sg20
F1.0
sg21
F-2604490.0
sg22
F12.52523244208634
sg23
F15456290.0
sg24
F2604490.0
sg25
F0.0
ssS'CARTER REBECCA C'
p256
(dp257
g3
F312.0
sg4
F0.0
sg5
F0.0
sg6
F0.0
sg7
F0.022435897435897436
sg8
F75000.0
sg9
F29.0
sg10
F-159792.0
sg11
F-307301.0
sg12
F196.0
sg13
F0.0
sg14
F15.0
sg15
F6.293419278846481
sg16
F0.0
sg17
F547.7225575051662
sg18
F0.0
sg19
F1.9333333333333333
sg20
F7.0
sg21
F307301.0
sg22
F12.475374328825467
sg23
F477557.0
sg24
F0.0
sg25
F0.0
ssS'BUCHANAN HAROLD G'
p258
(dp259
g3
F1088.0
sg4
F0.0
sg5
F24.49489742783178
sg6
F0.0
sg7
F0.0
sg8
F304805.0
sg9
F0.0
sg10
F0.0
sg11
F0.0
sg12
F23.0
sg13
F0.0
sg14
F125.0
sg15
F7.103322062526113
sg16
F0.0
sg17
F707.1067811865476
sg18
F1014505.0
sg19
F0.0
sg20
F0.0
sg21
F189041.0
sg22
F12.421256603158433
sg23
F1054637.0
sg24
F825464.0
sg25
F81674.90878032705
ssS'YEAP SOON'
p260
(dp261
g3
F0.0
sg4
F0.0
sg5
F234.72750158428389
sg6
F0.0
sg7
F0.0
sg8
F0.0
sg9
F0.0
sg10
F0.0
sg11
F0.0
sg12
F0.0
sg13
F0.0
sg14
F0.0
sg15
F0.0
sg16
F0.0
sg17
F0.0
sg18
F192758.0
sg19
F0.0
sg20
F0.0
sg21
F0.0
sg22
F12.52523244208634
sg23
F55097.0
sg24
F192758.0
sg25
F15389.574675860635
ssS'MURRAY JULIA H'
p262
(dp263
g3
F2192.0
sg4
F0.0
sg5
F239.9583297158071
sg6
F0.0
sg7
F0.0009124087591240876
sg8
F125000.0
sg9
F11.0
sg10
F0.0
sg11
F0.0
sg12
F395.0
sg13
F0.0
sg14
F45.0
sg15
F5.802118375377063
sg16
F0.0
sg17
F632.4555320336759
sg18
F597461.0
sg19
F0.24444444444444444
sg20
F2.0
sg21
F196983.0
sg22
F12.34272105022129
sg23
F812194.0
sg24
F400478.0
sg25
F48405.938817623064
ssS'GARLAND C KEVIN'
p264
(dp265
g3
F209.0
sg4
F0.0
sg5
F220.01136334289646
sg6
F0.0
sg7
F0.1291866028708134
sg8
F375304.0
sg9
F10.0
sg10
F0.0
sg11
F0.0
sg12
F178.0
sg13
F0.0
sg14
F44.0
sg15
F11.015591748052536
sg16
F0.0
sg17
F921.9544457292888
sg18
F896153.0
sg19
F0.22727272727272727
sg20
F27.0
sg21
F259907.0
sg22
F12.354264176274302
sg23
F1566469.0
sg24
F636246.0
sg25
F72537.95023430156
ssS'DODSON KEITH'
p266
(dp267
g3
F176.0
sg4
F0.0
sg5
F167.82133356638542
sg6
F0.0
sg7
F0.017045454545454544
sg8
F0.0
sg9
F10.0
sg10
F0.0
sg11
F0.0
sg12
F114.0
sg13
F0.0
sg14
F14.0
sg15
F6.652863029353347
sg16
F0.0
sg17
F264.5751311064591
sg18
F0.0
sg19
F0.7142857142857143
sg20
F3.0
sg21
F0.0
sg22
F12.305936079883606
sg23
F319941.0
sg24
F0.0
sg25
F0.0
ssS'YEAGER F SCOTT'
p268
(dp269
g3
F0.0
sg4
F0.0
sg5
F232.2649349342255
sg6
F1.0
sg7
F0.0
sg8
F0.0
sg9
F0.0
sg10
F0.0
sg11
F0.0
sg12
F0.0
sg13
F0.0
sg14
F0.0
sg15
F11.90463641684573
sg16
F0.0
sg17
F0.0
sg18
F11884758.0
sg19
F0.0
sg20
F0.0
sg21
F3576206.0
sg22
F11.972904010568875
sg23
F360300.0
sg24
F8308552.0
sg25
F992637.8754485073
ssS'HIRKO JOSEPH'
p270
(dp271
g3
F0.0
sg4
F10259.0
sg5
F279.24541177967455
sg6
F1.0
sg7
F0.0
sg8
F0.0
sg9
F0.0
sg10
F0.0
sg11
F0.0
sg12
F0.0
sg13
F0.0
sg14
F0.0
sg15
F7.957527402230773
sg16
F0.0
sg17
F0.0
sg18
F30766064.0
sg19
F0.0
sg20
F0.0
sg21
F0.0
sg22
F12.52523244208634
sg23
F91093.0
sg24
F30766064.0
sg25
F2456326.79012185
ssS'DIETRICH JANET R'
p272
(dp273
g3
F2572.0
sg4
F0.0
sg5
F58.94913061275798
sg6
F0.0
sg7
F0.005443234836702955
sg8
F556416.0
sg9
F305.0
sg10
F0.0
sg11
F0.0
sg12
F1902.0
sg13
F0.0
sg14
F63.0
sg15
F6.161207321695077
sg16
F0.0
sg17
F774.5966692414834
sg18
F1865087.0
sg19
F4.841269841269841
sg20
F14.0
sg21
F315068.0
sg22
F12.429620115258357
sg23
F1410464.0
sg24
F1550019.0
sg25
F150051.8103293001
ssS'DERRICK JR. JAMES V'
p274
(dp275
g3
F2181.0
sg4
F0.0
sg5
F226.10616975217638
sg6
F0.0
sg7
F0.009170105456212746
sg8
F484000.0
sg9
F64.0
sg10
F-1284000.0
sg11
F-1787380.0
sg12
F1401.0
sg13
F0.0
sg14
F909.0
sg15
F8.920389060080359
sg16
F0.0
sg17
F894.4271909999159
sg18
F8831913.0
sg19
F0.0704070407040704
sg20
F20.0
sg21
F1787380.0
sg22
F13.106997931243473
sg23
F550981.0
sg24
F8831913.0
sg25
F673831.8756385207
ssS'FREVERT MARK A'
p276
(dp277
g3
F3275.0
sg4
F6426990.0
sg5
F294.9355861878997
sg6
F0.0
sg7
F0.00183206106870229
sg8
F1617011.0
sg9
F242.0
sg10
F-3367011.0
sg11
F0.0
sg12
F2979.0
sg13
F2000000.0
sg14
F21.0
sg15
F15.820716311629981
sg16
F0.0
sg17
F1414.213562373095
sg18
F14622185.0
sg19
F11.523809523809524
sg20
F6.0
sg21
F4188667.0
sg22
F13.874659267628592
sg23
F17252530.0
sg24
F10433518.0
sg25
F1053877.0515334732
ssS'PAI LOU L'
p278
(dp279
g3
F0.0
sg4
F0.0
sg5
F179.01675899200052
sg6
F0.0
sg7
F0.0
sg8
F0.0
sg9
F0.0
sg10
F0.0
sg11
F0.0
sg12
F0.0
sg13
F0.0
sg14
F0.0
sg15
F14.419530306085779
sg16
F0.0
sg17
F1000.0
sg18
F23817930.0
sg19
F0.0
sg20
F0.0
sg21
F8453763.0
sg22
F12.475641662555027
sg23
F3123383.0
sg24
F15364167.0
sg25
F1909154.7067665663
ssS'BAY FRANKLIN R'
p280
(dp281
g3
F0.0
sg4
F260455.0
sg5
F359.3633258973431
sg6
F0.0
sg7
F0.0
sg8
F0.0
sg9
F0.0
sg10
F-201641.0
sg11
F-82782.0
sg12
F0.0
sg13
F0.0
sg14
F0.0
sg15
F4.248495242049359
sg16
F0.0
sg17
F632.4555320336759
sg18
F63014.0
sg19
F0.0
sg20
F0.0
sg21
F145796.0
sg22
F12.387026600916823
sg23
F827696.0
sg24
F0.0
sg25
F5087.096526888546
ssS'HAYSLETT RODERICK J'
p282
(dp283
g3
F2649.0
sg4
F0.0
sg5
F0.0
sg6
F0.0
sg7
F0.014345035862589657
sg8
F0.0
sg9
F35.0
sg10
F0.0
sg11
F0.0
sg12
F571.0
sg13
F0.0
sg14
F1061.0
sg15
F0.0
sg16
F0.0
sg17
F0.0
sg18
F346663.0
sg19
F0.03298774740810556
sg20
F38.0
sg21
F346663.0
sg22
F12.52523244208634
sg23
F0.0
sg24
F0.0
sg25
F27677.170990868733
ssS'FUGH JOHN L'
p284
(dp285
g3
F0.0
sg4
F50591.0
sg5
F0.0
sg6
F0.0
sg7
F0.0
sg8
F0.0
sg9
F0.0
sg10
F0.0
sg11
F0.0
sg12
F0.0
sg13
F0.0
sg14
F0.0
sg15
F0.0
sg16
F0.0
sg17
F0.0
sg18
F176378.0
sg19
F0.0
sg20
F0.0
sg21
F0.0
sg22
F12.52523244208634
sg23
F50591.0
sg24
F176378.0
sg25
F14081.814514463458
ssS'FALLON JAMES B'
p286
(dp287
g3
F1755.0
sg4
F0.0
sg5
F309.7159989409653
sg6
F0.0
sg7
F0.021082621082621083
sg8
F374347.0
sg9
F42.0
sg10
F0.0
sg11
F0.0
sg12
F1604.0
sg13
F0.0
sg14
F75.0
sg15
F12.902917979483526
sg16
F0.0
sg17
F1581.1388300841897
sg18
F2332399.0
sg19
F0.56
sg20
F37.0
sg21
F1392142.0
sg22
F12.626718605856114
sg23
F3676340.0
sg24
F940257.0
sg25
F184719.32992299856
ssS'KOENIG MARK E'
p288
(dp289
g3
F2374.0
sg4
F0.0
sg5
F356.3944444011438
sg6
F1.0
sg7
F0.006318449873631003
sg8
F300000.0
sg9
F53.0
sg10
F0.0
sg11
F0.0
sg12
F2271.0
sg13
F0.0
sg14
F61.0
sg15
F11.921445900807399
sg16
F0.0
sg17
F836.6600265340755
sg18
F1920055.0
sg19
F0.8688524590163934
sg20
F15.0
sg21
F1248318.0
sg22
F12.644156594102743
sg23
F1587421.0
sg24
F671737.0
sg25
F151853.14937459072
ssS'SAVAGE FRANK'
p290
(dp291
g3
F0.0
sg4
F0.0
sg5
F0.0
sg6
F0.0
sg7
F0.0
sg8
F0.0
sg9
F0.0
sg10
F-121284.0
sg11
F0.0
sg12
F0.0
sg13
F0.0
sg14
F0.0
sg15
F0.0
sg16
F125034.0
sg17
F0.0
sg18
F0.0
sg19
F0.0
sg20
F0.0
sg21
F0.0
sg22
F12.52523244208634
sg23
F3750.0
sg24
F0.0
sg25
F0.0
ssS'IZZO LAWRENCE L'
p292
(dp293
g3
F496.0
sg4
F0.0
sg5
F167.60966559241146
sg6
F0.0
sg7
F0.010080645161290322
sg8
F312500.0
sg9
F28.0
sg10
F0.0
sg11
F0.0
sg12
F437.0
sg13
F0.0
sg14
F19.0
sg15
F14.256169049640544
sg16
F0.0
sg17
F0.0
sg18
F5819980.0
sg19
F1.4736842105263157
sg20
F5.0
sg21
F3654808.0
sg22
F11.353636607286846
sg23
F1979596.0
sg24
F2165172.0
sg25
F512609.3252152085
ssS'TILNEY ELIZABETH A'
p294
(dp295
g3
F460.0
sg4
F0.0
sg5
F0.0
sg6
F0.0
sg7
F0.02391304347826087
sg8
F275000.0
sg9
F10.0
sg10
F-575000.0
sg11
F0.0
sg12
F379.0
sg13
F0.0
sg14
F19.0
sg15
F11.932004153030674
sg16
F0.0
sg17
F547.7225575051662
sg18
F1168042.0
sg19
F0.5263157894736842
sg20
F11.0
sg21
F576792.0
sg22
F12.418515144270167
sg23
F399393.0
sg24
F591250.0
sg25
F94056.49439006628
ssS'MARTIN AMANDA K'
p296
(dp297
g3
F1522.0
sg4
F85430.0
sg5
F90.61456836513652
sg6
F0.0
sg7
F0.0
sg8
F5145434.0
sg9
F8.0
sg10
F0.0
sg11
F0.0
sg12
F477.0
sg13
F0.0
sg14
F230.0
sg15
F14.85169942043698
sg16
F0.0
sg17
F0.0
sg18
F2070306.0
sg19
F0.034782608695652174
sg20
F0.0
sg21
F0.0
sg22
F12.764224505302602
sg23
F8407016.0
sg24
F2070306.0
sg25
F162195.9876324597
ssS'BUY RICHARD B'
p298
(dp299
g3
F3523.0
sg4
F649584.0
sg5
F0.0
sg6
F0.0
sg7
F0.02015327845586148
sg8
F769862.0
sg9
F156.0
sg10
F-694862.0
sg11
F0.0
sg12
F2333.0
sg13
F0.0
sg14
F1053.0
sg15
F12.9006513010408
sg16
F0.0
sg17
F948.6832980505138
sg18
F3444470.0
sg19
F0.14814814814814814
sg20
F71.0
sg21
F901657.0
sg22
F12.708504136937753
sg23
F2355702.0
sg24
F2542813.0
sg25
F271036.61948604294
ssS'GRAMM WENDY L'
p300
(dp301
g3
F0.0
sg4
F0.0
sg5
F0.0
sg6
F0.0
sg7
F0.0
sg8
F0.0
sg9
F0.0
sg10
F0.0
sg11
F0.0
sg12
F0.0
sg13
F0.0
sg14
F0.0
sg15
F0.0
sg16
F119292.0
sg17
F0.0
sg18
F0.0
sg19
F0.0
sg20
F0.0
sg21
F0.0
sg22
F12.52523244208634
sg23
F119292.0
sg24
F0.0
sg25
F0.0
ssS'CAUSEY RICHARD A'
p302
(dp303
g3
F1892.0
sg4
F0.0
sg5
F175.13994404475525
sg6
F1.0
sg7
F0.006342494714587738
sg8
F350000.0
sg9
F58.0
sg10
F-235000.0
sg11
F0.0
sg12
F1585.0
sg13
F0.0
sg14
F49.0
sg15
F12.637517342597286
sg16
F0.0
sg17
F1000.0
sg18
F2502063.0
sg19
F1.183673469387755
sg20
F12.0
sg21
F2502063.0
sg22
F12.936491525765353
sg23
F1868758.0
sg24
F0.0
sg25
F193411.25026184192
ssS'TAYLOR MITCHELL S'
p304
(dp305
g3
F533.0
sg4
F227449.0
sg5
F0.0
sg6
F0.0
sg7
F0.0
sg8
F0.0
sg9
F0.0
sg10
F0.0
sg11
F0.0
sg12
F300.0
sg13
F0.0
sg14
F29.0
sg15
F0.0
sg16
F0.0
sg17
F774.5966692414834
sg18
F3745048.0
sg19
F0.0
sg20
F0.0
sg21
F563798.0
sg22
F12.4882960967803
sg23
F1092663.0
sg24
F3181250.0
sg25
F299884.6256508555
ssS'DONAHUE JR JEFFREY M'
p306
(dp307
g3
F865.0
sg4
F0.0
sg5
F310.2708494203089
sg6
F0.0
sg7
F0.012716763005780347
sg8
F0.0
sg9
F188.0
sg10
F-300000.0
sg11
F0.0
sg12
F772.0
sg13
F0.0
sg14
F22.0
sg15
F6.79346613258001
sg16
F0.0
sg17
F894.4271909999159
sg18
F1080988.0
sg19
F8.545454545454545
sg20
F11.0
sg21
F315068.0
sg22
F12.537539519052972
sg23
F875760.0
sg24
F765920.0
sg25
F86220.10709176635
ssS'GLISAN JR BEN F'
p308
(dp309
g3
F873.0
sg4
F0.0
sg5
F354.93379664382485
sg6
F1.0
sg7
F0.006872852233676976
sg8
F71023.0
sg9
F52.0
sg10
F0.0
sg11
F0.0
sg12
F874.0
sg13
F0.0
sg14
F16.0
sg15
F12.207616453245569
sg16
F0.0
sg17
F774.5966692414834
sg18
F778546.0
sg19
F3.25
sg20
F6.0
sg21
F393818.0
sg22
F12.52443910011295
sg23
F1272284.0
sg24
F384728.0
sg25
F62162.14504911272
ss.