(lp0
S'poi'
p1
aS'bonus'
p2
aS'other'
p3
aS'salary'
p4
aS'expenses'
p5
aS'to_messages'
p6
aS'from_poi_to_this_person'
p7
aS'from_messages'
p8
aS'from_this_person_to_poi'
p9
aS'shared_receipt_with_poi'
p10
aS'deferral_payments'
p11
aS'total_payments'
p12
aS'loan_advances'
p13
aS'restricted_stock_deferred'
p14
aS'deferred_income'
p15
aS'total_stock_value'
p16
aS'exercised_stock_options'
p17
aS'long_term_incentive'
p18
aS'restricted_stock'
p19
aS'director_fees'
p20
aS'rcv_ratio'
p21
aS'sent_ratio'
p22
aS'holding_rate'
p23
a.